target datalayout = "e-m:e-p270:32:32-p271:32:32-p272:64:64-i64:64-i128:128-f80:128-n8:16:32:64-S128"
target triple = "x86_64-pc-linux-gnu"

%struct.RelOptInfo = type { i32, i32, ptr, double, i8, i8, i8, ptr, ptr, ptr, ptr, ptr, ptr, ptr, ptr, ptr, ptr, i32, i32, i32, i16, i16, ptr, ptr, ptr, ptr, ptr, ptr, ptr, ptr, i32, double, double, ptr, ptr, ptr, i32, i32, i32, i32, i8, ptr, ptr, ptr, ptr, ptr, %struct.QualCost, i32, ptr, i8, i8, ptr, ptr, ptr, ptr, i32, ptr, i8, ptr, ptr, ptr, ptr, ptr, ptr }
%struct.QualCost = type { double, double }

; Function Attrs: nounwind uwtable
define dso_local void @generate_partitionwise_join_paths(ptr noundef %0, ptr noundef %1) #0 {
  %3 = alloca ptr, align 8
  %4 = alloca ptr, align 8
  %5 = alloca ptr, align 8
  %6 = alloca i32, align 4
  %7 = alloca i32, align 4
  %8 = alloca ptr, align 8
  %9 = alloca i32, align 4
  %10 = alloca ptr, align 8
  store ptr %0, ptr %3, align 8
  store ptr %1, ptr %4, align 8
  call void @llvm.lifetime.start.p0(i64 8, ptr %5) #8
  store ptr null, ptr %5, align 8
  call void @llvm.lifetime.start.p0(i64 4, ptr %6) #8
  call void @llvm.lifetime.start.p0(i64 4, ptr %7) #8
  call void @llvm.lifetime.start.p0(i64 8, ptr %8) #8
  %11 = load ptr, ptr %4, align 8
  %12 = getelementptr inbounds nuw %struct.RelOptInfo, ptr %11, i32 0, i32 1
  %13 = load i32, ptr %12, align 4
  %14 = icmp eq i32 %13, 1
  br i1 %14, label %21, label %15

15:                                               ; preds = %2
  %16 = load ptr, ptr %4, align 8
  %17 = getelementptr inbounds nuw %struct.RelOptInfo, ptr %16, i32 0, i32 1
  %18 = load i32, ptr %17, align 4
  %19 = icmp eq i32 %18, 3
  br i1 %19, label %21, label %20

20:                                               ; preds = %15
  store i32 1, ptr %9, align 4
  br label %100

21:                                               ; preds = %15, %2
  %22 = load ptr, ptr %4, align 8
  %23 = getelementptr inbounds nuw %struct.RelOptInfo, ptr %22, i32 0, i32 54
  %24 = load ptr, ptr %23, align 8
  %25 = icmp ne ptr %24, null
  br i1 %25, label %26, label %44

26:                                               ; preds = %21
  %27 = load ptr, ptr %4, align 8
  %28 = getelementptr inbounds nuw %struct.RelOptInfo, ptr %27, i32 0, i32 56
  %29 = load ptr, ptr %28, align 8
  %30 = icmp ne ptr %29, null
  br i1 %30, label %31, label %44

31:                                               ; preds = %26
  %32 = load ptr, ptr %4, align 8
  %33 = getelementptr inbounds nuw %struct.RelOptInfo, ptr %32, i32 0, i32 55
  %34 = load i32, ptr %33, align 8
  %35 = icmp sgt i32 %34, 0
  br i1 %35, label %36, label %44

36:                                               ; preds = %31
  %37 = load ptr, ptr %4, align 8
  %38 = getelementptr inbounds nuw %struct.RelOptInfo, ptr %37, i32 0, i32 59
  %39 = load ptr, ptr %38, align 8
  %40 = icmp ne ptr %39, null
  br i1 %40, label %41, label %44

41:                                               ; preds = %36
  %42 = load ptr, ptr %4, align 8
  %43 = call zeroext i1 @is_dummy_rel(ptr noundef %42)
  br i1 %43, label %44, label %45

44:                                               ; preds = %41, %36, %31, %26, %21
  store i32 1, ptr %9, align 4
  br label %100

45:                                               ; preds = %41
  call void @check_stack_depth()
  %46 = load ptr, ptr %4, align 8
  %47 = getelementptr inbounds nuw %struct.RelOptInfo, ptr %46, i32 0, i32 55
  %48 = load i32, ptr %47, align 8
  store i32 %48, ptr %7, align 4
  %49 = load ptr, ptr %4, align 8
  %50 = getelementptr inbounds nuw %struct.RelOptInfo, ptr %49, i32 0, i32 59
  %51 = load ptr, ptr %50, align 8
  store ptr %51, ptr %8, align 8
  store i32 0, ptr %6, align 4
  br label %52

52:                                               ; preds = %87, %45
  %53 = load i32, ptr %6, align 4
  %54 = load i32, ptr %7, align 4
  %55 = icmp slt i32 %53, %54
  br i1 %55, label %56, label %90

56:                                               ; preds = %52
  call void @llvm.lifetime.start.p0(i64 8, ptr %10) #8
  %57 = load ptr, ptr %8, align 8
  %58 = load i32, ptr %6, align 4
  %59 = sext i32 %58 to i64
  %60 = getelementptr inbounds ptr, ptr %57, i64 %59
  %61 = load ptr, ptr %60, align 8
  store ptr %61, ptr %10, align 8
  %62 = load ptr, ptr %10, align 8
  %63 = icmp eq ptr %62, null
  br i1 %63, label %64, label %65

64:                                               ; preds = %56
  store i32 4, ptr %9, align 4
  br label %84

65:                                               ; preds = %56
  %66 = load ptr, ptr %3, align 8
  %67 = load ptr, ptr %10, align 8
  call void @generate_partitionwise_join_paths(ptr noundef %66, ptr noundef %67)
  %68 = load ptr, ptr %10, align 8
  %69 = getelementptr inbounds nuw %struct.RelOptInfo, ptr %68, i32 0, i32 8
  %70 = load ptr, ptr %69, align 8
  %71 = icmp eq ptr %70, null
  br i1 %71, label %72, label %75

72:                                               ; preds = %65
  %73 = load ptr, ptr %4, align 8
  %74 = getelementptr inbounds nuw %struct.RelOptInfo, ptr %73, i32 0, i32 55
  store i32 0, ptr %74, align 8
  store i32 1, ptr %9, align 4
  br label %84

75:                                               ; preds = %65
  %76 = load ptr, ptr %10, align 8
  call void @set_cheapest(ptr noundef %76)
  %77 = load ptr, ptr %10, align 8
  %78 = call zeroext i1 @is_dummy_rel(ptr noundef %77)
  br i1 %78, label %79, label %80

79:                                               ; preds = %75
  store i32 4, ptr %9, align 4
  br label %84

80:                                               ; preds = %75
  %81 = load ptr, ptr %5, align 8
  %82 = load ptr, ptr %10, align 8
  %83 = call ptr @lappend(ptr noundef %81, ptr noundef %82)
  store ptr %83, ptr %5, align 8
  store i32 0, ptr %9, align 4
  br label %84

84:                                               ; preds = %80, %79, %72, %64
  call void @llvm.lifetime.end.p0(i64 8, ptr %10) #8
  %85 = load i32, ptr %9, align 4
  switch i32 %85, label %100 [
    i32 0, label %86
    i32 4, label %87
  ]

86:                                               ; preds = %84
  br label %87

87:                                               ; preds = %86, %84
  %88 = load i32, ptr %6, align 4
  %89 = add i32 %88, 1
  store i32 %89, ptr %6, align 4
  br label %52, !llvm.loop !30

90:                                               ; preds = %52
  %91 = load ptr, ptr %5, align 8
  %92 = icmp ne ptr %91, null
  br i1 %92, label %95, label %93

93:                                               ; preds = %90
  %94 = load ptr, ptr %4, align 8
  call void @mark_dummy_rel(ptr noundef %94)
  store i32 1, ptr %9, align 4
  br label %100

95:                                               ; preds = %90
  %96 = load ptr, ptr %3, align 8
  %97 = load ptr, ptr %4, align 8
  %98 = load ptr, ptr %5, align 8
  call void @add_paths_to_append_rel(ptr noundef %96, ptr noundef %97, ptr noundef %98)
  %99 = load ptr, ptr %5, align 8
  call void @list_free(ptr noundef %99)
  store i32 0, ptr %9, align 4
  br label %100

100:                                              ; preds = %95, %93, %84, %44, %20
  call void @llvm.lifetime.end.p0(i64 8, ptr %8) #8
  call void @llvm.lifetime.end.p0(i64 4, ptr %7) #8
  call void @llvm.lifetime.end.p0(i64 4, ptr %6) #8
  call void @llvm.lifetime.end.p0(i64 8, ptr %5) #8
  %101 = load i32, ptr %9, align 4
  switch i32 %101, label %103 [
    i32 0, label %102
    i32 1, label %102
  ]

102:                                              ; preds = %100, %100
  ret void

103:                                              ; preds = %100
  unreachable
}