; Function Attrs: nounwind uwtable
define dso_local void @generate_partitionwise_join_paths(ptr noundef %0, ptr noundef %1) local_unnamed_addr #0 {
  %3 = getelementptr inbounds nuw i8, ptr %1, i64 4
  %4 = load i32, ptr %3, align 4
  switch i32 %4, label %38 [
    i32 1, label %5
    i32 3, label %5
  ]

5:                                                ; preds = %2, %2
  %6 = getelementptr inbounds nuw i8, ptr %1, i64 368
  %7 = load ptr, ptr %6, align 8
  %.not = icmp eq ptr %7, null
  br i1 %.not, label %38, label %8

8:                                                ; preds = %5
  %9 = getelementptr inbounds nuw i8, ptr %1, i64 384
  %10 = load ptr, ptr %9, align 8
  %.not33 = icmp eq ptr %10, null
  br i1 %.not33, label %38, label %11

11:                                               ; preds = %8
  %12 = getelementptr inbounds nuw i8, ptr %1, i64 376
  %13 = load i32, ptr %12, align 8
  %14 = icmp sgt i32 %13, 0
  br i1 %14, label %15, label %38

15:                                               ; preds = %11
  %16 = getelementptr inbounds nuw i8, ptr %1, i64 408
  %17 = load ptr, ptr %16, align 8
  %.not34 = icmp eq ptr %17, null
  br i1 %.not34, label %38, label %18

18:                                               ; preds = %15
  %19 = tail call zeroext i1 @is_dummy_rel(ptr noundef nonnull %1) #9
  br i1 %19, label %38, label %20

20:                                               ; preds = %18
  tail call void @check_stack_depth() #9
  %21 = load i32, ptr %12, align 8
  %22 = load ptr, ptr %16, align 8
  %23 = icmp sgt i32 %21, 0
  br i1 %23, label %.lr.ph.preheader, label %._crit_edge.thread

.lr.ph.preheader:                                 ; preds = %20
  %wide.trip.count = zext nneg i32 %21 to i64
  br label %.lr.ph

.lr.ph:                                           ; preds = %.lr.ph.preheader, %36
  %indvars.iv = phi i64 [ 0, %.lr.ph.preheader ], [ %indvars.iv.next, %36 ]
  %.041 = phi ptr [ null, %.lr.ph.preheader ], [ %.1.ph, %36 ]
  %24 = getelementptr inbounds nuw ptr, ptr %22, i64 %indvars.iv
  %25 = load ptr, ptr %24, align 8
  %26 = icmp eq ptr %25, null
  br i1 %26, label %36, label %27

27:                                               ; preds = %.lr.ph
  tail call void @generate_partitionwise_join_paths(ptr noundef %0, ptr noundef nonnull %25)
  %28 = getelementptr inbounds nuw i8, ptr %25, i64 40
  %29 = load ptr, ptr %28, align 8
  %30 = icmp eq ptr %29, null
  br i1 %30, label %35, label %31

31:                                               ; preds = %27
  tail call void @set_cheapest(ptr noundef nonnull %25) #9
  %32 = tail call zeroext i1 @is_dummy_rel(ptr noundef nonnull %25) #9
  br i1 %32, label %36, label %33

33:                                               ; preds = %31
  %34 = tail call ptr @lappend(ptr noundef %.041, ptr noundef nonnull %25) #9
  br label %36

35:                                               ; preds = %27
  store i32 0, ptr %12, align 8
  br label %38

36:                                               ; preds = %33, %.lr.ph, %31
  %.1.ph = phi ptr [ %.041, %31 ], [ %.041, %.lr.ph ], [ %34, %33 ]
  %indvars.iv.next = add nuw nsw i64 %indvars.iv, 1
  %exitcond.not = icmp eq i64 %indvars.iv.next, %wide.trip.count
  br i1 %exitcond.not, label %._crit_edge, label %.lr.ph, !llvm.loop !15

._crit_edge:                                      ; preds = %36
  %.not35 = icmp eq ptr %.1.ph, null
  br i1 %.not35, label %._crit_edge.thread, label %37

._crit_edge.thread:                               ; preds = %20, %._crit_edge
  tail call void @mark_dummy_rel(ptr noundef nonnull %1) #9
  br label %38

37:                                               ; preds = %._crit_edge
  tail call void @add_paths_to_append_rel(ptr noundef %0, ptr noundef nonnull %1, ptr noundef nonnull %.1.ph)
  tail call void @list_free(ptr noundef nonnull %.1.ph) #9
  br label %38

38:                                               ; preds = %35, %5, %8, %11, %15, %18, %2, %37, %._crit_edge.thread
  ret void
}